; Listing generated by Microsoft (R) Optimizing Compiler Version 14.00.40310.41 

include listing.inc

INCLUDELIB LIBCMT
INCLUDELIB OLDNAMES

PUBLIC	?Function1@@YAHH@Z				; Function1
EXTRN	?CalledFunction1@@YAHH@Z:NEAR			; CalledFunction1
;	COMDAT xdata
; File c:\book\cd\code\chapter2.3\param64.cpp
xdata	SEGMENT
$unwind$?Function1@@YAHH@Z DD 010401H
	DD	04204H
xdata	ENDS
;	COMDAT pdata
pdata	SEGMENT
$pdata$?Function1@@YAHH@Z DD @imagerel($LN3#)
	DD	@imagerel($LN3#+19)
	DD	@imagerel($unwind$?Function1@@YAHH@Z#)
; Function compile flags: /Ogtpy
pdata	ENDS
;	COMDAT ?Function1@@YAHH@Z
_TEXT	SEGMENT
a$ = 48
?Function1@@YAHH@Z PROC NEAR				; Function1, COMDAT

; 40   : {

$LN3:
  00000	48 83 ec 28	 sub	 rsp, 40			; 00000028H

; 41   :     CalledFunction1(a);

  00004	e8 00 00 00 00	 call	 ?CalledFunction1@@YAHH@Z ; CalledFunction1

; 42   :     return 1;

  00009	b8 01 00 00 00	 mov	 eax, 1

; 43   : }

  0000e	48 83 c4 28	 add	 rsp, 40			; 00000028H
  00012	c3		 ret	 0
?Function1@@YAHH@Z ENDP					; Function1
_TEXT	ENDS
PUBLIC	?Function2@@YAHHH@Z				; Function2
EXTRN	?CalledFunction2@@YAHHH@Z:NEAR			; CalledFunction2
;	COMDAT xdata
xdata	SEGMENT
$unwind$?Function2@@YAHHH@Z DD 010401H
	DD	04204H
xdata	ENDS
;	COMDAT pdata
pdata	SEGMENT
$pdata$?Function2@@YAHHH@Z DD @imagerel($LN3#)
	DD	@imagerel($LN3#+19)
	DD	@imagerel($unwind$?Function2@@YAHHH@Z#)
; Function compile flags: /Ogtpy
pdata	ENDS
;	COMDAT ?Function2@@YAHHH@Z
_TEXT	SEGMENT
a$ = 48
b$ = 56
?Function2@@YAHHH@Z PROC NEAR				; Function2, COMDAT

; 46   : {

$LN3:
  00000	48 83 ec 28	 sub	 rsp, 40			; 00000028H

; 47   :     CalledFunction2(a,b);

  00004	e8 00 00 00 00	 call	 ?CalledFunction2@@YAHHH@Z ; CalledFunction2

; 48   :     return 2;

  00009	b8 02 00 00 00	 mov	 eax, 2

; 49   : }

  0000e	48 83 c4 28	 add	 rsp, 40			; 00000028H
  00012	c3		 ret	 0
?Function2@@YAHHH@Z ENDP				; Function2
_TEXT	ENDS
PUBLIC	?Function3@@YAHHHH@Z				; Function3
EXTRN	?CalledFunction3@@YAHHHH@Z:NEAR			; CalledFunction3
;	COMDAT xdata
xdata	SEGMENT
$unwind$?Function3@@YAHHHH@Z DD 010401H
	DD	04204H
xdata	ENDS
;	COMDAT pdata
pdata	SEGMENT
$pdata$?Function3@@YAHHHH@Z DD @imagerel($LN3#)
	DD	@imagerel($LN3#+19)
	DD	@imagerel($unwind$?Function3@@YAHHHH@Z#)
; Function compile flags: /Ogtpy
pdata	ENDS
;	COMDAT ?Function3@@YAHHHH@Z
_TEXT	SEGMENT
a$ = 48
b$ = 56
c$ = 64
?Function3@@YAHHHH@Z PROC NEAR				; Function3, COMDAT

; 52   : {

$LN3:
  00000	48 83 ec 28	 sub	 rsp, 40			; 00000028H

; 53   :     CalledFunction3(a,b,c);

  00004	e8 00 00 00 00	 call	 ?CalledFunction3@@YAHHHH@Z ; CalledFunction3

; 54   :     return 3;

  00009	b8 03 00 00 00	 mov	 eax, 3

; 55   : }

  0000e	48 83 c4 28	 add	 rsp, 40			; 00000028H
  00012	c3		 ret	 0
?Function3@@YAHHHH@Z ENDP				; Function3
_TEXT	ENDS
PUBLIC	?Function4@@YAHHHHH@Z				; Function4
EXTRN	?CalledFunction4@@YAHHHHH@Z:NEAR		; CalledFunction4
;	COMDAT xdata
xdata	SEGMENT
$unwind$?Function4@@YAHHHHH@Z DD 010401H
	DD	04204H
xdata	ENDS
;	COMDAT pdata
pdata	SEGMENT
$pdata$?Function4@@YAHHHHH@Z DD @imagerel($LN3#)
	DD	@imagerel($LN3#+19)
	DD	@imagerel($unwind$?Function4@@YAHHHHH@Z#)
; Function compile flags: /Ogtpy
pdata	ENDS
;	COMDAT ?Function4@@YAHHHHH@Z
_TEXT	SEGMENT
a$ = 48
b$ = 56
c$ = 64
d$ = 72
?Function4@@YAHHHHH@Z PROC NEAR				; Function4, COMDAT

; 58   : {

$LN3:
  00000	48 83 ec 28	 sub	 rsp, 40			; 00000028H

; 59   :     CalledFunction4(a,b,c,d);

  00004	e8 00 00 00 00	 call	 ?CalledFunction4@@YAHHHHH@Z ; CalledFunction4

; 60   :     return 4;

  00009	b8 04 00 00 00	 mov	 eax, 4

; 61   : }

  0000e	48 83 c4 28	 add	 rsp, 40			; 00000028H
  00012	c3		 ret	 0
?Function4@@YAHHHHH@Z ENDP				; Function4
_TEXT	ENDS
PUBLIC	?Function5@@YAHHHHHH@Z				; Function5
EXTRN	?CalledFunction5@@YAHHHHHH@Z:NEAR		; CalledFunction5
;	COMDAT xdata
xdata	SEGMENT
$unwind$?Function5@@YAHHHHHH@Z DD 010401H
	DD	06204H
xdata	ENDS
;	COMDAT pdata
pdata	SEGMENT
$pdata$?Function5@@YAHHHHHH@Z DD @imagerel($LN3#)
	DD	@imagerel($LN3#+27)
	DD	@imagerel($unwind$?Function5@@YAHHHHHH@Z#)
; Function compile flags: /Ogtpy
pdata	ENDS
;	COMDAT ?Function5@@YAHHHHHH@Z
_TEXT	SEGMENT
a$ = 64
b$ = 72
c$ = 80
d$ = 88
e$ = 96
?Function5@@YAHHHHHH@Z PROC NEAR			; Function5, COMDAT

; 64   : {

$LN3:
  00000	48 83 ec 38	 sub	 rsp, 56			; 00000038H

; 65   :     CalledFunction5(a,b,c,d,e);

  00004	8b 44 24 60	 mov	 eax, DWORD PTR e$[rsp]
  00008	89 44 24 20	 mov	 DWORD PTR [rsp+32], eax
  0000c	e8 00 00 00 00	 call	 ?CalledFunction5@@YAHHHHHH@Z ; CalledFunction5

; 66   :     return 5;

  00011	b8 05 00 00 00	 mov	 eax, 5

; 67   : }

  00016	48 83 c4 38	 add	 rsp, 56			; 00000038H
  0001a	c3		 ret	 0
?Function5@@YAHHHHHH@Z ENDP				; Function5
_TEXT	ENDS
END
